; Function Attrs: mustprogress nofree norecurse nosync nounwind willreturn memory(argmem: readwrite) uwtable
define ptr @PQsetNoticeProcessor(ptr noundef captures(address_is_null) %0, ptr noundef %1, ptr noundef %2) local_unnamed_addr #18 {
  %4 = icmp eq ptr %0, null
  br i1 %4, label %10, label %5

5:                                                ; preds = %3
  %6 = getelementptr inbounds nuw i8, ptr %0, i64 384
  %7 = load ptr, ptr %6, align 8
  %.not = icmp eq ptr %1, null
  br i1 %.not, label %10, label %8

8:                                                ; preds = %5
  store ptr %1, ptr %6, align 8
  %9 = getelementptr inbounds nuw i8, ptr %0, i64 392
  store ptr %2, ptr %9, align 8
  br label %10

10:                                               ; preds = %5, %8, %3
  %.0 = phi ptr [ null, %3 ], [ %7, %8 ], [ %7, %5 ]
  ret ptr %.0
}